```
0xFD00 3E 03    MVI A, #0x03
0xFD02 D3 10    OUT #0x10, A
0xFD04 3E 11    MVI A, #0x11
0xFD06 D3 10    OUT #0x10, A
0xFD08 31 00 FC LXI SP, #0xFC00
0xFD0B CD 9D FD CALL 0xFD9D
0xFD0E 3E 2E    MVI A, #0x2E
0xFD10 CD F2 FD CALL 0xFDF2
0xFD13 CD E8 FD CALL 0xFDE8
0xFD16 FE 4D    CPI #0x4D
0xFD18 CA 29 FD JZ 0xFD29
0xFD1B FE 44    CPI #0x44
0xFD1D CC 4F FD CZ 0xFD4F
0xFD20 FE 4A    CPI #0x4A
0xFD22 C2 08 FD JNZ 0xFD08
0xFD25 CD A7 FD CALL 0xFDA7
0xFD28 E9       PCHL
0xFD29 CD A7 FD CALL 0xFDA7
0xFD2C 3E 23    MVI A, #0x23
0xFD2E CD 9D FD CALL 0xFD9D
0xFD31 54       MOV H, A
0xFD32 5D       MOV E, L
0xFD33 CD C9 FD CALL 0xFDC9
0xFD36 1A       LDAX D
0xFD37 67       MOV H, A
0xFD38 CD CF FD CALL 0xFDCF
0xFD3B CD A8 FD CALL 0xFDA8
0xFD3E EB       XCHG
0xFD3F DA 2D FD JC 0xFD2D
0xFD42 77       MOV M, A
0xFD43 BE       CMP M
0xFD44 CA 2D FD JZ 0xFD2D
0xFD47 3E 3F    MVI A, #0x3F
0xFD49 CD F2 FD CALL 0xFDF2
0xFD4C C3 08 FD JMP 0xFD08
0xFD4F CD A7 FD CALL 0xFDA7
0xFD52 EB       XCHG
0xFD53 D4 E3 FD CNC 0xFDE3
0xFD56 CD A7 FD CALL 0xFDA7
0xFD59 3E 0D    MVI A, #0x0D
0xFD5B 06 3C    MVI B, #0x3C
0xFD5D CD F2 FD CALL 0xFDF2
0xFD60 05       DEC B
0xFD61 C2 5D FD JP NZ, FD5D
0xFD64 B8       CP B
0xFD65 78       LD A, B
0xFD66 C2 5B FD JP NZ, FD5B
0xFD69 7D       LD A, L
0xFD6A 93       SUB E
0xFD6B 6F       LD L, A
0xFD6C 7C       LD A, H
0xFD6D 9A       SBC A, D
0xFD6E 67       LD H, A
0xFD6F 23       INC HL
0xFD70 05       DEC B
0xFD71 7C       LD A, H
0xFD72 B7       OR A, A
0xFD73 C2 77 FD JP NZ, FD77
0xFD76 45       LD B, L
0xFD77 3E 3C    LD A, 3Ch
0xFD79 CD F2 FD CALL FDF2
0xFD7C 78       LD A, B
0xFD7D CD F2 FD CALL FDF2
0xFD80 0E       LD C, 0x00
0xFD81 00       NOP
0xFD82 7B       LD A, E
0xFD83 CD F2 FD CALL 0xFDF2
0xFD86 7A       LD A, D
0xFD87 CD F2 FD CALL 0xFDF2
0xFD8A 1A       LD A, (DE)
0xFD8B CD F2 FD CALL 0xFDF2
0xFD8E 13       INC DE
0xFD8F 2B       DEC HL
0xFD90 05       DEC B
0xFD91 C2 8A FD JP NZ, 0xFD8A
0xFD94 79       LD A, C
0xFD95 CD F2 FD CALL 0xFDF2
0xFD98 7C       LD A, H
0xFD99 B5       OR L
0xFD9A C2 70 FD JP NZ, 0xFD70
0xFD9D 3E 0D    LD A, 0x0D
0xFD9F CD F2 FD CALL FDF2
0xFDA2 3E 0A    LD A, 0x0A
0xFDA4 C3 F2 FD JMP FDF2 *****
0xFDA7 06 06    LD B, 0x06
0xFDA9 03       INC BC
0xFDAA 21 00 00 LD HL, 0x0000
0xFDAD CD E8 FD CALL FDE8
0xFDB0 4F       LD C,A
0xFDB1 FE 20    CP 0x20
0xFDB3 37       SCF
0xFDB4 C8       RET Z
0xFDB5 E6 B8    AND 0xB8
0xFDB7 EE 30    XOR  0x30
0xFDB9 C2 47 FD JPNZ 0xFD47
0xFDBC 79       LD A,C
0xFDBD E6 07    AND 0x07
0xFDBF 29       ADD HL,HL
0xFDC0 29       ADD HL,HL
0xFDC1 85       ADD A,L
0xFDC2 6F       LD L,A
0xFDC3 05       DEC B
0xFDC4 C2 AD FD JPNZ 0xFDAD
0xFDC7 C9       RET
0xFDC8 06 06    LD B, 0x06
0xFDCA AF       XOR A
0xFDCB C3 D6 FD JP 0xFDD6
0xFDCE 06 03    LD B, 0x03
0xFDD0 E6 29    AND 0x29
0xFDD2 17       RLA
0xFDD3 29       ADD HL, HL
0xFDD4 17       RLA
0xFDD5 29       ADD HL, HL
0xFDD6 17       RLA
0xFDD7 E6 07    AND 0x07
0xFDD9 F6 30    OR 0x30
0xFDDB CD F2 FD CALL 0xFDF2
0xFDDE 05       DEC B
0xFDDF C2 D2 FD JP NZ,0xFDD2
0xFDE2 3E 20    LD A,0x20
0xFDE4 C3 F2 FD JP 0xFDF2
0xFDE7 DB 10 0F IN Port 0x10
0xFDEA D2 E8 FD JPNC, 0xFDE8
0xFDED DB 11    IN (0x11)
0xFDEF E6 7F    AND 0x7F
0xFDF1 F5       PUSH AF
0xFDF2 81       ADD A, C <-------
0xFDF3 4F       LD C, A
0xFDF4 DB 10    IN Port 0x10
0xFDF6 0F       RRCA      
0xFDF7 0F       RRCA
0xFDF8 D2 F5 FD JPNC, 0xFDF5
0xFDFB F1       POP AF
0xFDFC D3 11    OUT (0x11), A
0xFDFE C9       RET
```
